; Function Attrs: mustprogress uwtable
define dso_local void @_ZN9struct_pb8compiler20StringFieldGeneratorC2EPKN6google8protobuf15FieldDescriptorERK7Options(ptr noundef nonnull align 8 dereferenceable(64) %this, ptr noundef %field, ptr noundef nonnull align 8 dereferenceable(48) %options) unnamed_addr #3 align 2 personality ptr @__gxx_personality_v0 {
entry:
  %agg.tmp.i = alloca %struct.Options, align 8
  call void @llvm.lifetime.start.p0(i64 48, ptr nonnull %agg.tmp.i)
  %0 = getelementptr inbounds i8, ptr %this, i64 8
  %1 = load i8, ptr %options, align 8
  %2 = and i8 %1, 1
  store i8 %2, ptr %agg.tmp.i, align 8
  %ns.i.i = getelementptr inbounds i8, ptr %agg.tmp.i, i64 8
  %ns3.i.i = getelementptr inbounds i8, ptr %options, i64 8
  call void @_ZNSt7__cxx1112basic_stringIcSt11char_traitsIcESaIcEEC2ERKS4_(ptr noundef nonnull align 8 dereferenceable(32) %ns.i.i, ptr noundef nonnull align 8 dereferenceable(32) %ns3.i.i)
  %f.i.i = getelementptr inbounds i8, ptr %agg.tmp.i, i64 40
  %f4.i.i = getelementptr inbounds i8, ptr %options, i64 40
  %3 = load ptr, ptr %f4.i.i, align 8
  store ptr %3, ptr %f.i.i, align 8
  %4 = load i8, ptr %agg.tmp.i, align 8
  %5 = and i8 %4, 1
  store i8 %5, ptr %0, align 8
  %ns.i.i.i = getelementptr inbounds i8, ptr %this, i64 16
  invoke void @_ZNSt7__cxx1112basic_stringIcSt11char_traitsIcESaIcEEC2ERKS4_(ptr noundef nonnull align 8 dereferenceable(32) %ns.i.i.i, ptr noundef nonnull align 8 dereferenceable(32) %ns.i.i)
          to label %invoke.cont.i unwind label %lpad.i

invoke.cont.i:                                    ; preds = %entry
  %f.i.i.i = getelementptr inbounds i8, ptr %this, i64 48
  %6 = load ptr, ptr %f.i.i, align 8
  store ptr %6, ptr %f.i.i.i, align 8
  %7 = load ptr, ptr %ns.i.i, align 8
  %8 = getelementptr inbounds i8, ptr %agg.tmp.i, i64 24
  %cmp.i.i.i.i.i = icmp eq ptr %7, %8
  br i1 %cmp.i.i.i.i.i, label %_ZNKSt7__cxx1112basic_stringIcSt11char_traitsIcESaIcEE11_M_is_localEv.exit.thread.i.i.i.i, label %if.then.i.i.i.i

_ZNKSt7__cxx1112basic_stringIcSt11char_traitsIcESaIcEE11_M_is_localEv.exit.thread.i.i.i.i: ; preds = %invoke.cont.i
  %_M_string_length.i.i.i.i.i = getelementptr inbounds i8, ptr %agg.tmp.i, i64 16
  %9 = load i64, ptr %_M_string_length.i.i.i.i.i, align 8
  %cmp3.i.i.i.i.i = icmp ult i64 %9, 16
  call void @llvm.assume(i1 %cmp3.i.i.i.i.i)
  br label %_ZN9struct_pb8compiler14FieldGeneratorC2EPKN6google8protobuf15FieldDescriptorERK7Options.exit

if.then.i.i.i.i:                                  ; preds = %invoke.cont.i
  call void @_ZdlPv(ptr noundef %7) #18
  br label %_ZN9struct_pb8compiler14FieldGeneratorC2EPKN6google8protobuf15FieldDescriptorERK7Options.exit

lpad.i:                                           ; preds = %entry
  %10 = landingpad { ptr, i32 }
          cleanup
  call void @_ZN7OptionsD2Ev(ptr noundef nonnull align 8 dereferenceable(48) %agg.tmp.i) #19
  resume { ptr, i32 } %10

_ZN9struct_pb8compiler14FieldGeneratorC2EPKN6google8protobuf15FieldDescriptorERK7Options.exit: ; preds = %_ZNKSt7__cxx1112basic_stringIcSt11char_traitsIcESaIcEE11_M_is_localEv.exit.thread.i.i.i.i, %if.then.i.i.i.i
  call void @_ZNSaIcED2Ev(ptr noundef nonnull align 1 dereferenceable(1) %ns.i.i) #19
  %d_.i = getelementptr inbounds i8, ptr %this, i64 56
  store ptr %field, ptr %d_.i, align 8
  call void @llvm.lifetime.end.p0(i64 48, ptr nonnull %agg.tmp.i)
  store ptr getelementptr inbounds ({ [7 x ptr] }, ptr @_ZTVN9struct_pb8compiler20StringFieldGeneratorE, i64 0, i32 0, i64 2), ptr %this, align 8
  ret void
}